target datalayout = "e-m:e-p270:32:32-p271:32:32-p272:64:64-i64:64-i128:128-f80:128-n8:16:32:64-S128"
target triple = "x86_64-pc-linux-gnu"

%struct.jpeg_compress_struct = type { ptr, ptr, ptr, ptr, i32, i32, ptr, i32, i32, i32, i32, double, i32, i32, i32, ptr, [4 x ptr], [4 x ptr], [4 x ptr], [16 x i8], [16 x i8], [16 x i8], i32, ptr, i32, i32, i32, i32, i32, i32, i32, i32, i32, i8, i8, i8, i16, i16, i32, i32, i32, i32, i32, i32, i32, [4 x ptr], i32, i32, i32, [10 x i32], i32, i32, i32, i32, ptr, ptr, ptr, ptr, ptr, ptr, ptr, ptr, ptr, ptr, i32 }
%struct.jpeg_comp_master = type { ptr, ptr, ptr, i32, i32, i32 }
%struct.jpeg_component_info = type { i32, i32, i32, i32, i32, i32, i32, i32, i32, i32, i32, i32, i32, i32, i32, i32, i32, i32, i32, ptr, ptr }
%struct.jpeg_error_mgr = type { ptr, ptr, ptr, ptr, ptr, i32, %union.anon, i32, i64, ptr, i32, ptr, i32, i32 }
%union.anon = type { [8 x i32], [48 x i8] }

; Function Attrs: nounwind uwtable
define internal void @per_scan_setup(ptr noundef %0) #0 {
  %2 = alloca ptr, align 8
  %3 = alloca i32, align 4
  %4 = alloca i32, align 4
  %5 = alloca i32, align 4
  %6 = alloca ptr, align 8
  %7 = alloca i32, align 4
  %8 = alloca i64, align 8
  store ptr %0, ptr %2, align 8, !tbaa !3
  call void @llvm.lifetime.start.p0(i64 4, ptr %3) #4
  call void @llvm.lifetime.start.p0(i64 4, ptr %4) #4
  call void @llvm.lifetime.start.p0(i64 4, ptr %5) #4
  call void @llvm.lifetime.start.p0(i64 8, ptr %6) #4
  call void @llvm.lifetime.start.p0(i64 4, ptr %7) #4
  %9 = load ptr, ptr %2, align 8, !tbaa !3
  %10 = getelementptr inbounds nuw %struct.jpeg_compress_struct, ptr %9, i32 0, i32 54
  %11 = load ptr, ptr %10, align 8, !tbaa !10
  %12 = getelementptr inbounds nuw %struct.jpeg_comp_master, ptr %11, i32 0, i32 5
  %13 = load i32, ptr %12, align 8, !tbaa !38
  %14 = icmp ne i32 %13, 0
  %15 = select i1 %14, i32 1, i32 8
  store i32 %15, ptr %7, align 4, !tbaa !8
  %16 = load ptr, ptr %2, align 8, !tbaa !3
  %17 = getelementptr inbounds nuw %struct.jpeg_compress_struct, ptr %16, i32 0, i32 44
  %18 = load i32, ptr %17, align 4, !tbaa !134
  %19 = icmp eq i32 %18, 1
  br i1 %19, label %20, label %68

20:                                               ; preds = %1
  %21 = load ptr, ptr %2, align 8, !tbaa !3
  %22 = getelementptr inbounds nuw %struct.jpeg_compress_struct, ptr %21, i32 0, i32 45
  %23 = getelementptr inbounds [4 x ptr], ptr %22, i64 0, i64 0
  %24 = load ptr, ptr %23, align 8, !tbaa !27
  store ptr %24, ptr %6, align 8, !tbaa !27
  %25 = load ptr, ptr %6, align 8, !tbaa !27
  %26 = getelementptr inbounds nuw %struct.jpeg_component_info, ptr %25, i32 0, i32 7
  %27 = load i32, ptr %26, align 4, !tbaa !126
  %28 = load ptr, ptr %2, align 8, !tbaa !3
  %29 = getelementptr inbounds nuw %struct.jpeg_compress_struct, ptr %28, i32 0, i32 46
  store i32 %27, ptr %29, align 8, !tbaa !139
  %30 = load ptr, ptr %6, align 8, !tbaa !27
  %31 = getelementptr inbounds nuw %struct.jpeg_component_info, ptr %30, i32 0, i32 8
  %32 = load i32, ptr %31, align 8, !tbaa !127
  %33 = load ptr, ptr %2, align 8, !tbaa !3
  %34 = getelementptr inbounds nuw %struct.jpeg_compress_struct, ptr %33, i32 0, i32 47
  store i32 %32, ptr %34, align 4, !tbaa !140
  %35 = load ptr, ptr %6, align 8, !tbaa !27
  %36 = getelementptr inbounds nuw %struct.jpeg_component_info, ptr %35, i32 0, i32 13
  store i32 1, ptr %36, align 4, !tbaa !141
  %37 = load ptr, ptr %6, align 8, !tbaa !27
  %38 = getelementptr inbounds nuw %struct.jpeg_component_info, ptr %37, i32 0, i32 14
  store i32 1, ptr %38, align 8, !tbaa !142
  %39 = load ptr, ptr %6, align 8, !tbaa !27
  %40 = getelementptr inbounds nuw %struct.jpeg_component_info, ptr %39, i32 0, i32 15
  store i32 1, ptr %40, align 4, !tbaa !143
  %41 = load i32, ptr %7, align 4, !tbaa !8
  %42 = load ptr, ptr %6, align 8, !tbaa !27
  %43 = getelementptr inbounds nuw %struct.jpeg_component_info, ptr %42, i32 0, i32 16
  store i32 %41, ptr %43, align 8, !tbaa !144
  %44 = load ptr, ptr %6, align 8, !tbaa !27
  %45 = getelementptr inbounds nuw %struct.jpeg_component_info, ptr %44, i32 0, i32 17
  store i32 1, ptr %45, align 4, !tbaa !145
  %46 = load ptr, ptr %6, align 8, !tbaa !27
  %47 = getelementptr inbounds nuw %struct.jpeg_component_info, ptr %46, i32 0, i32 8
  %48 = load i32, ptr %47, align 8, !tbaa !127
  %49 = load ptr, ptr %6, align 8, !tbaa !27
  %50 = getelementptr inbounds nuw %struct.jpeg_component_info, ptr %49, i32 0, i32 3
  %51 = load i32, ptr %50, align 4, !tbaa !43
  %52 = urem i32 %48, %51
  store i32 %52, ptr %5, align 4, !tbaa !8
  %53 = load i32, ptr %5, align 4, !tbaa !8
  %54 = icmp eq i32 %53, 0
  br i1 %54, label %55, label %59

55:                                               ; preds = %20
  %56 = load ptr, ptr %6, align 8, !tbaa !27
  %57 = getelementptr inbounds nuw %struct.jpeg_component_info, ptr %56, i32 0, i32 3
  %58 = load i32, ptr %57, align 4, !tbaa !43
  store i32 %58, ptr %5, align 4, !tbaa !8
  br label %59

59:                                               ; preds = %55, %20
  %60 = load i32, ptr %5, align 4, !tbaa !8
  %61 = load ptr, ptr %6, align 8, !tbaa !27
  %62 = getelementptr inbounds nuw %struct.jpeg_component_info, ptr %61, i32 0, i32 18
  store i32 %60, ptr %62, align 8, !tbaa !146
  %63 = load ptr, ptr %2, align 8, !tbaa !3
  %64 = getelementptr inbounds nuw %struct.jpeg_compress_struct, ptr %63, i32 0, i32 48
  store i32 1, ptr %64, align 8, !tbaa !147
  %65 = load ptr, ptr %2, align 8, !tbaa !3
  %66 = getelementptr inbounds nuw %struct.jpeg_compress_struct, ptr %65, i32 0, i32 49
  %67 = getelementptr inbounds [10 x i32], ptr %66, i64 0, i64 0
  store i32 0, ptr %67, align 4, !tbaa !8
  br label %246

68:                                               ; preds = %1
  %69 = load ptr, ptr %2, align 8, !tbaa !3
  %70 = getelementptr inbounds nuw %struct.jpeg_compress_struct, ptr %69, i32 0, i32 44
  %71 = load i32, ptr %70, align 4, !tbaa !134
  %72 = icmp sle i32 %71, 0
  br i1 %72, label %78, label %73

73:                                               ; preds = %68
  %74 = load ptr, ptr %2, align 8, !tbaa !3
  %75 = getelementptr inbounds nuw %struct.jpeg_compress_struct, ptr %74, i32 0, i32 44
  %76 = load i32, ptr %75, align 4, !tbaa !134
  %77 = icmp sgt i32 %76, 4
  br i1 %77, label %78, label %102

78:                                               ; preds = %73, %68
  %79 = load ptr, ptr %2, align 8, !tbaa !3
  %80 = getelementptr inbounds nuw %struct.jpeg_compress_struct, ptr %79, i32 0, i32 0
  %81 = load ptr, ptr %80, align 8, !tbaa !85
  %82 = getelementptr inbounds nuw %struct.jpeg_error_mgr, ptr %81, i32 0, i32 5
  store i32 26, ptr %82, align 8, !tbaa !86
  %83 = load ptr, ptr %2, align 8, !tbaa !3
  %84 = getelementptr inbounds nuw %struct.jpeg_compress_struct, ptr %83, i32 0, i32 44
  %85 = load i32, ptr %84, align 4, !tbaa !134
  %86 = load ptr, ptr %2, align 8, !tbaa !3
  %87 = getelementptr inbounds nuw %struct.jpeg_compress_struct, ptr %86, i32 0, i32 0
  %88 = load ptr, ptr %87, align 8, !tbaa !85
  %89 = getelementptr inbounds nuw %struct.jpeg_error_mgr, ptr %88, i32 0, i32 6
  %90 = getelementptr inbounds [8 x i32], ptr %89, i64 0, i64 0
  store i32 %85, ptr %90, align 4, !tbaa !97
  %91 = load ptr, ptr %2, align 8, !tbaa !3
  %92 = getelementptr inbounds nuw %struct.jpeg_compress_struct, ptr %91, i32 0, i32 0
  %93 = load ptr, ptr %92, align 8, !tbaa !85
  %94 = getelementptr inbounds nuw %struct.jpeg_error_mgr, ptr %93, i32 0, i32 6
  %95 = getelementptr inbounds [8 x i32], ptr %94, i64 0, i64 1
  store i32 4, ptr %95, align 4, !tbaa !97
  %96 = load ptr, ptr %2, align 8, !tbaa !3
  %97 = getelementptr inbounds nuw %struct.jpeg_compress_struct, ptr %96, i32 0, i32 0
  %98 = load ptr, ptr %97, align 8, !tbaa !85
  %99 = getelementptr inbounds nuw %struct.jpeg_error_mgr, ptr %98, i32 0, i32 0
  %100 = load ptr, ptr %99, align 8, !tbaa !90
  %101 = load ptr, ptr %2, align 8, !tbaa !3
  call void %100(ptr noundef %101)
  br label %102

102:                                              ; preds = %78, %73
  %103 = load ptr, ptr %2, align 8, !tbaa !3
  %104 = getelementptr inbounds nuw %struct.jpeg_compress_struct, ptr %103, i32 0, i32 7
  %105 = load i32, ptr %104, align 8, !tbaa !118
  %106 = zext i32 %105 to i64
  %107 = load ptr, ptr %2, align 8, !tbaa !3
  %108 = getelementptr inbounds nuw %struct.jpeg_compress_struct, ptr %107, i32 0, i32 41
  %109 = load i32, ptr %108, align 8, !tbaa !121
  %110 = load i32, ptr %7, align 4, !tbaa !8
  %111 = mul nsw i32 %109, %110
  %112 = sext i32 %111 to i64
  %113 = call i64 @jdiv_round_up(i64 noundef %106, i64 noundef %112)
  %114 = trunc i64 %113 to i32
  %115 = load ptr, ptr %2, align 8, !tbaa !3
  %116 = getelementptr inbounds nuw %struct.jpeg_compress_struct, ptr %115, i32 0, i32 46
  store i32 %114, ptr %116, align 8, !tbaa !139
  %117 = load ptr, ptr %2, align 8, !tbaa !3
  %118 = getelementptr inbounds nuw %struct.jpeg_compress_struct, ptr %117, i32 0, i32 8
  %119 = load i32, ptr %118, align 4, !tbaa !117
  %120 = zext i32 %119 to i64
  %121 = load ptr, ptr %2, align 8, !tbaa !3
  %122 = getelementptr inbounds nuw %struct.jpeg_compress_struct, ptr %121, i32 0, i32 42
  %123 = load i32, ptr %122, align 4, !tbaa !122
  %124 = load i32, ptr %7, align 4, !tbaa !8
  %125 = mul nsw i32 %123, %124
  %126 = sext i32 %125 to i64
  %127 = call i64 @jdiv_round_up(i64 noundef %120, i64 noundef %126)
  %128 = trunc i64 %127 to i32
  %129 = load ptr, ptr %2, align 8, !tbaa !3
  %130 = getelementptr inbounds nuw %struct.jpeg_compress_struct, ptr %129, i32 0, i32 47
  store i32 %128, ptr %130, align 4, !tbaa !140
  %131 = load ptr, ptr %2, align 8, !tbaa !3
  %132 = getelementptr inbounds nuw %struct.jpeg_compress_struct, ptr %131, i32 0, i32 48
  store i32 0, ptr %132, align 8, !tbaa !147
  store i32 0, ptr %3, align 4, !tbaa !8
  br label %133

133:                                              ; preds = %242, %102
  %134 = load i32, ptr %3, align 4, !tbaa !8
  %135 = load ptr, ptr %2, align 8, !tbaa !3
  %136 = getelementptr inbounds nuw %struct.jpeg_compress_struct, ptr %135, i32 0, i32 44
  %137 = load i32, ptr %136, align 4, !tbaa !134
  %138 = icmp slt i32 %134, %137
  br i1 %138, label %139, label %245

139:                                              ; preds = %133
  %140 = load ptr, ptr %2, align 8, !tbaa !3
  %141 = getelementptr inbounds nuw %struct.jpeg_compress_struct, ptr %140, i32 0, i32 45
  %142 = load i32, ptr %3, align 4, !tbaa !8
  %143 = sext i32 %142 to i64
  %144 = getelementptr inbounds [4 x ptr], ptr %141, i64 0, i64 %143
  %145 = load ptr, ptr %144, align 8, !tbaa !27
  store ptr %145, ptr %6, align 8, !tbaa !27
  %146 = load ptr, ptr %6, align 8, !tbaa !27
  %147 = getelementptr inbounds nuw %struct.jpeg_component_info, ptr %146, i32 0, i32 2
  %148 = load i32, ptr %147, align 8, !tbaa !45
  %149 = load ptr, ptr %6, align 8, !tbaa !27
  %150 = getelementptr inbounds nuw %struct.jpeg_component_info, ptr %149, i32 0, i32 13
  store i32 %148, ptr %150, align 4, !tbaa !141
  %151 = load ptr, ptr %6, align 8, !tbaa !27
  %152 = getelementptr inbounds nuw %struct.jpeg_component_info, ptr %151, i32 0, i32 3
  %153 = load i32, ptr %152, align 4, !tbaa !43
  %154 = load ptr, ptr %6, align 8, !tbaa !27
  %155 = getelementptr inbounds nuw %struct.jpeg_component_info, ptr %154, i32 0, i32 14
  store i32 %153, ptr %155, align 8, !tbaa !142
  %156 = load ptr, ptr %6, align 8, !tbaa !27
  %157 = getelementptr inbounds nuw %struct.jpeg_component_info, ptr %156, i32 0, i32 13
  %158 = load i32, ptr %157, align 4, !tbaa !141
  %159 = load ptr, ptr %6, align 8, !tbaa !27
  %160 = getelementptr inbounds nuw %struct.jpeg_component_info, ptr %159, i32 0, i32 14
  %161 = load i32, ptr %160, align 8, !tbaa !142
  %162 = mul nsw i32 %158, %161
  %163 = load ptr, ptr %6, align 8, !tbaa !27
  %164 = getelementptr inbounds nuw %struct.jpeg_component_info, ptr %163, i32 0, i32 15
  store i32 %162, ptr %164, align 4, !tbaa !143
  %165 = load ptr, ptr %6, align 8, !tbaa !27
  %166 = getelementptr inbounds nuw %struct.jpeg_component_info, ptr %165, i32 0, i32 13
  %167 = load i32, ptr %166, align 4, !tbaa !141
  %168 = load i32, ptr %7, align 4, !tbaa !8
  %169 = mul nsw i32 %167, %168
  %170 = load ptr, ptr %6, align 8, !tbaa !27
  %171 = getelementptr inbounds nuw %struct.jpeg_component_info, ptr %170, i32 0, i32 16
  store i32 %169, ptr %171, align 8, !tbaa !144
  %172 = load ptr, ptr %6, align 8, !tbaa !27
  %173 = getelementptr inbounds nuw %struct.jpeg_component_info, ptr %172, i32 0, i32 7
  %174 = load i32, ptr %173, align 4, !tbaa !126
  %175 = load ptr, ptr %6, align 8, !tbaa !27
  %176 = getelementptr inbounds nuw %struct.jpeg_component_info, ptr %175, i32 0, i32 13
  %177 = load i32, ptr %176, align 4, !tbaa !141
  %178 = urem i32 %174, %177
  store i32 %178, ptr %5, align 4, !tbaa !8
  %179 = load i32, ptr %5, align 4, !tbaa !8
  %180 = icmp eq i32 %179, 0
  br i1 %180, label %181, label %185

181:                                              ; preds = %139
  %182 = load ptr, ptr %6, align 8, !tbaa !27
  %183 = getelementptr inbounds nuw %struct.jpeg_component_info, ptr %182, i32 0, i32 13
  %184 = load i32, ptr %183, align 4, !tbaa !141
  store i32 %184, ptr %5, align 4, !tbaa !8
  br label %185

185:                                              ; preds = %181, %139
  %186 = load i32, ptr %5, align 4, !tbaa !8
  %187 = load ptr, ptr %6, align 8, !tbaa !27
  %188 = getelementptr inbounds nuw %struct.jpeg_component_info, ptr %187, i32 0, i32 17
  store i32 %186, ptr %188, align 4, !tbaa !145
  %189 = load ptr, ptr %6, align 8, !tbaa !27
  %190 = getelementptr inbounds nuw %struct.jpeg_component_info, ptr %189, i32 0, i32 8
  %191 = load i32, ptr %190, align 8, !tbaa !127
  %192 = load ptr, ptr %6, align 8, !tbaa !27
  %193 = getelementptr inbounds nuw %struct.jpeg_component_info, ptr %192, i32 0, i32 14
  %194 = load i32, ptr %193, align 8, !tbaa !142
  %195 = urem i32 %191, %194
  store i32 %195, ptr %5, align 4, !tbaa !8
  %196 = load i32, ptr %5, align 4, !tbaa !8
  %197 = icmp eq i32 %196, 0
  br i1 %197, label %198, label %202

198:                                              ; preds = %185
  %199 = load ptr, ptr %6, align 8, !tbaa !27
  %200 = getelementptr inbounds nuw %struct.jpeg_component_info, ptr %199, i32 0, i32 14
  %201 = load i32, ptr %200, align 8, !tbaa !142
  store i32 %201, ptr %5, align 4, !tbaa !8
  br label %202

202:                                              ; preds = %198, %185
  %203 = load i32, ptr %5, align 4, !tbaa !8
  %204 = load ptr, ptr %6, align 8, !tbaa !27
  %205 = getelementptr inbounds nuw %struct.jpeg_component_info, ptr %204, i32 0, i32 18
  store i32 %203, ptr %205, align 8, !tbaa !146
  %206 = load ptr, ptr %6, align 8, !tbaa !27
  %207 = getelementptr inbounds nuw %struct.jpeg_component_info, ptr %206, i32 0, i32 15
  %208 = load i32, ptr %207, align 4, !tbaa !143
  store i32 %208, ptr %4, align 4, !tbaa !8
  %209 = load ptr, ptr %2, align 8, !tbaa !3
  %210 = getelementptr inbounds nuw %struct.jpeg_compress_struct, ptr %209, i32 0, i32 48
  %211 = load i32, ptr %210, align 8, !tbaa !147
  %212 = load i32, ptr %4, align 4, !tbaa !8
  %213 = add nsw i32 %211, %212
  %214 = icmp sgt i32 %213, 10
  br i1 %214, label %215, label %226

215:                                              ; preds = %202
  %216 = load ptr, ptr %2, align 8, !tbaa !3
  %217 = getelementptr inbounds nuw %struct.jpeg_compress_struct, ptr %216, i32 0, i32 0
  %218 = load ptr, ptr %217, align 8, !tbaa !85
  %219 = getelementptr inbounds nuw %struct.jpeg_error_mgr, ptr %218, i32 0, i32 5
  store i32 13, ptr %219, align 8, !tbaa !86
  %220 = load ptr, ptr %2, align 8, !tbaa !3
  %221 = getelementptr inbounds nuw %struct.jpeg_compress_struct, ptr %220, i32 0, i32 0
  %222 = load ptr, ptr %221, align 8, !tbaa !85
  %223 = getelementptr inbounds nuw %struct.jpeg_error_mgr, ptr %222, i32 0, i32 0
  %224 = load ptr, ptr %223, align 8, !tbaa !90
  %225 = load ptr, ptr %2, align 8, !tbaa !3
  call void %224(ptr noundef %225)
  br label %226

226:                                              ; preds = %215, %202
  br label %227

227:                                              ; preds = %231, %226
  %228 = load i32, ptr %4, align 4, !tbaa !8
  %229 = add nsw i32 %228, -1
  store i32 %229, ptr %4, align 4, !tbaa !8
  %230 = icmp sgt i32 %228, 0
  br i1 %230, label %231, label %241

231:                                              ; preds = %227
  %232 = load i32, ptr %3, align 4, !tbaa !8
  %233 = load ptr, ptr %2, align 8, !tbaa !3
  %234 = getelementptr inbounds nuw %struct.jpeg_compress_struct, ptr %233, i32 0, i32 49
  %235 = load ptr, ptr %2, align 8, !tbaa !3
  %236 = getelementptr inbounds nuw %struct.jpeg_compress_struct, ptr %235, i32 0, i32 48
  %237 = load i32, ptr %236, align 8, !tbaa !147
  %238 = add nsw i32 %237, 1
  store i32 %238, ptr %236, align 8, !tbaa !147
  %239 = sext i32 %237 to i64
  %240 = getelementptr inbounds [10 x i32], ptr %234, i64 0, i64 %239
  store i32 %232, ptr %240, align 4, !tbaa !8
  br label %227, !llvm.loop !148

241:                                              ; preds = %227
  br label %242

242:                                              ; preds = %241
  %243 = load i32, ptr %3, align 4, !tbaa !8
  %244 = add nsw i32 %243, 1
  store i32 %244, ptr %3, align 4, !tbaa !8
  br label %133, !llvm.loop !149

245:                                              ; preds = %133
  br label %246

246:                                              ; preds = %245, %59
  %247 = load ptr, ptr %2, align 8, !tbaa !3
  %248 = getelementptr inbounds nuw %struct.jpeg_compress_struct, ptr %247, i32 0, i32 31
  %249 = load i32, ptr %248, align 4, !tbaa !150
  %250 = icmp sgt i32 %249, 0
  br i1 %250, label %251, label %271

251:                                              ; preds = %246
  call void @llvm.lifetime.start.p0(i64 8, ptr %8) #4
  %252 = load ptr, ptr %2, align 8, !tbaa !3
  %253 = getelementptr inbounds nuw %struct.jpeg_compress_struct, ptr %252, i32 0, i32 31
  %254 = load i32, ptr %253, align 4, !tbaa !150
  %255 = sext i32 %254 to i64
  %256 = load ptr, ptr %2, align 8, !tbaa !3
  %257 = getelementptr inbounds nuw %struct.jpeg_compress_struct, ptr %256, i32 0, i32 46
  %258 = load i32, ptr %257, align 8, !tbaa !139
  %259 = zext i32 %258 to i64
  %260 = mul nsw i64 %255, %259
  store i64 %260, ptr %8, align 8, !tbaa !120
  %261 = load i64, ptr %8, align 8, !tbaa !120
  %262 = icmp slt i64 %261, 65535
  br i1 %262, label %263, label %265

263:                                              ; preds = %251
  %264 = load i64, ptr %8, align 8, !tbaa !120
  br label %266

265:                                              ; preds = %251
  br label %266

266:                                              ; preds = %265, %263
  %267 = phi i64 [ %264, %263 ], [ 65535, %265 ]
  %268 = trunc i64 %267 to i32
  %269 = load ptr, ptr %2, align 8, !tbaa !3
  %270 = getelementptr inbounds nuw %struct.jpeg_compress_struct, ptr %269, i32 0, i32 30
  store i32 %268, ptr %270, align 8, !tbaa !151
  call void @llvm.lifetime.end.p0(i64 8, ptr %8) #4
  br label %271

271:                                              ; preds = %266, %246
  call void @llvm.lifetime.end.p0(i64 4, ptr %7) #4
  call void @llvm.lifetime.end.p0(i64 8, ptr %6) #4
  call void @llvm.lifetime.end.p0(i64 4, ptr %5) #4
  call void @llvm.lifetime.end.p0(i64 4, ptr %4) #4
  call void @llvm.lifetime.end.p0(i64 4, ptr %3) #4
  ret void
}