; Function Attrs: nounwind uwtable
define internal fastcc void @per_scan_setup(ptr noundef %0) unnamed_addr #0 {
  %2 = getelementptr inbounds nuw i8, ptr %0, i64 432
  %3 = load ptr, ptr %2, align 8, !tbaa !3
  %4 = getelementptr inbounds nuw i8, ptr %3, i64 32
  %5 = load i32, ptr %4, align 8, !tbaa !43
  %.not = icmp eq i32 %5, 0
  %6 = getelementptr inbounds nuw i8, ptr %0, i64 324
  %7 = load i32, ptr %6, align 4, !tbaa !91
  %8 = icmp eq i32 %7, 1
  br i1 %8, label %9, label %31

9:                                                ; preds = %1
  %10 = select i1 %.not, i32 8, i32 1
  %11 = getelementptr inbounds nuw i8, ptr %0, i64 328
  %12 = load ptr, ptr %11, align 8, !tbaa !84
  %13 = getelementptr inbounds nuw i8, ptr %12, i64 28
  %14 = load i32, ptr %13, align 4, !tbaa !74
  %15 = getelementptr inbounds nuw i8, ptr %0, i64 360
  store i32 %14, ptr %15, align 8, !tbaa !130
  %16 = getelementptr inbounds nuw i8, ptr %12, i64 32
  %17 = load i32, ptr %16, align 8, !tbaa !75
  %18 = getelementptr inbounds nuw i8, ptr %0, i64 364
  store i32 %17, ptr %18, align 4, !tbaa !131
  %19 = getelementptr inbounds nuw i8, ptr %12, i64 52
  store i32 1, ptr %19, align 4, !tbaa !132
  %20 = getelementptr inbounds nuw i8, ptr %12, i64 56
  store i32 1, ptr %20, align 8, !tbaa !133
  %21 = getelementptr inbounds nuw i8, ptr %12, i64 60
  store i32 1, ptr %21, align 4, !tbaa !134
  %22 = getelementptr inbounds nuw i8, ptr %12, i64 64
  store i32 %10, ptr %22, align 8, !tbaa !135
  %23 = getelementptr inbounds nuw i8, ptr %12, i64 68
  store i32 1, ptr %23, align 4, !tbaa !136
  %24 = getelementptr inbounds nuw i8, ptr %12, i64 12
  %25 = load i32, ptr %24, align 4, !tbaa !62
  %26 = urem i32 %17, %25
  %27 = icmp eq i32 %26, 0
  %spec.select = select i1 %27, i32 %25, i32 %26
  %28 = getelementptr inbounds nuw i8, ptr %12, i64 72
  store i32 %spec.select, ptr %28, align 8, !tbaa !137
  %29 = getelementptr inbounds nuw i8, ptr %0, i64 368
  store i32 1, ptr %29, align 8, !tbaa !138
  %30 = getelementptr inbounds nuw i8, ptr %0, i64 372
  store i32 0, ptr %30, align 4, !tbaa !46
  br label %.loopexit

31:                                               ; preds = %1
  %32 = add i32 %7, -5
  %or.cond = icmp ult i32 %32, -4
  br i1 %or.cond, label %33, label %41

33:                                               ; preds = %31
  %34 = load ptr, ptr %0, align 8, !tbaa !33
  %35 = getelementptr inbounds nuw i8, ptr %34, i64 40
  store i32 26, ptr %35, align 8, !tbaa !34
  %36 = getelementptr inbounds nuw i8, ptr %34, i64 44
  store i32 %7, ptr %36, align 4, !tbaa !38
  %37 = load ptr, ptr %0, align 8, !tbaa !33
  %38 = getelementptr inbounds nuw i8, ptr %37, i64 48
  store i32 4, ptr %38, align 4, !tbaa !38
  %39 = load ptr, ptr %0, align 8, !tbaa !33
  %40 = load ptr, ptr %39, align 8, !tbaa !39
  tail call void %40(ptr noundef nonnull %0) #6
  br label %41

41:                                               ; preds = %31, %33
  %42 = getelementptr inbounds nuw i8, ptr %0, i64 48
  %43 = load i32, ptr %42, align 8, !tbaa !67
  %44 = zext i32 %43 to i64
  %45 = getelementptr inbounds nuw i8, ptr %0, i64 312
  %46 = load i32, ptr %45, align 8, !tbaa !69
  %47 = select i1 %.not, i32 3, i32 0
  %48 = shl i32 %46, %47
  %49 = sext i32 %48 to i64
  %50 = tail call i64 @jdiv_round_up(i64 noundef %44, i64 noundef %49) #6
  %51 = trunc i64 %50 to i32
  %52 = getelementptr inbounds nuw i8, ptr %0, i64 360
  store i32 %51, ptr %52, align 8, !tbaa !130
  %53 = getelementptr inbounds nuw i8, ptr %0, i64 52
  %54 = load i32, ptr %53, align 4, !tbaa !66
  %55 = zext i32 %54 to i64
  %56 = getelementptr inbounds nuw i8, ptr %0, i64 316
  %57 = load i32, ptr %56, align 4, !tbaa !70
  %58 = shl i32 %57, %47
  %59 = sext i32 %58 to i64
  %60 = tail call i64 @jdiv_round_up(i64 noundef %55, i64 noundef %59) #6
  %61 = trunc i64 %60 to i32
  %62 = getelementptr inbounds nuw i8, ptr %0, i64 364
  store i32 %61, ptr %62, align 4, !tbaa !131
  %63 = getelementptr inbounds nuw i8, ptr %0, i64 368
  store i32 0, ptr %63, align 8, !tbaa !138
  %64 = load i32, ptr %6, align 4, !tbaa !91
  %65 = icmp sgt i32 %64, 0
  br i1 %65, label %.lr.ph91, label %.loopexit

.lr.ph91:                                         ; preds = %41
  %66 = getelementptr inbounds nuw i8, ptr %0, i64 328
  %67 = getelementptr inbounds nuw i8, ptr %0, i64 372
  br label %68

68:                                               ; preds = %.lr.ph91, %._crit_edge
  %indvars.iv = phi i64 [ 0, %.lr.ph91 ], [ %indvars.iv.next, %._crit_edge ]
  %69 = getelementptr inbounds nuw [4 x ptr], ptr %66, i64 0, i64 %indvars.iv
  %70 = load ptr, ptr %69, align 8, !tbaa !84
  %71 = getelementptr inbounds nuw i8, ptr %70, i64 8
  %72 = load i32, ptr %71, align 8, !tbaa !64
  %73 = getelementptr inbounds nuw i8, ptr %70, i64 52
  store i32 %72, ptr %73, align 4, !tbaa !132
  %74 = getelementptr inbounds nuw i8, ptr %70, i64 12
  %75 = load i32, ptr %74, align 4, !tbaa !62
  %76 = getelementptr inbounds nuw i8, ptr %70, i64 56
  store i32 %75, ptr %76, align 8, !tbaa !133
  %77 = mul nsw i32 %75, %72
  %78 = getelementptr inbounds nuw i8, ptr %70, i64 60
  store i32 %77, ptr %78, align 4, !tbaa !134
  %79 = shl i32 %72, %47
  %80 = getelementptr inbounds nuw i8, ptr %70, i64 64
  store i32 %79, ptr %80, align 8, !tbaa !135
  %81 = getelementptr inbounds nuw i8, ptr %70, i64 28
  %82 = load i32, ptr %81, align 4, !tbaa !74
  %83 = urem i32 %82, %72
  %84 = icmp eq i32 %83, 0
  %spec.select87 = select i1 %84, i32 %72, i32 %83
  %85 = getelementptr inbounds nuw i8, ptr %70, i64 68
  store i32 %spec.select87, ptr %85, align 4, !tbaa !136
  %86 = getelementptr inbounds nuw i8, ptr %70, i64 32
  %87 = load i32, ptr %86, align 8, !tbaa !75
  %88 = urem i32 %87, %75
  %89 = icmp eq i32 %88, 0
  %.2 = select i1 %89, i32 %75, i32 %88
  %90 = getelementptr inbounds nuw i8, ptr %70, i64 72
  store i32 %.2, ptr %90, align 8, !tbaa !137
  %91 = load i32, ptr %63, align 8, !tbaa !138
  %92 = add nsw i32 %91, %77
  %93 = icmp sgt i32 %92, 10
  br i1 %93, label %94, label %98

94:                                               ; preds = %68
  %95 = load ptr, ptr %0, align 8, !tbaa !33
  %96 = getelementptr inbounds nuw i8, ptr %95, i64 40
  store i32 13, ptr %96, align 8, !tbaa !34
  %97 = load ptr, ptr %95, align 8, !tbaa !39
  tail call void %97(ptr noundef nonnull %0) #6
  br label %98

98:                                               ; preds = %94, %68
  %99 = icmp sgt i32 %77, 0
  br i1 %99, label %.lr.ph.preheader, label %._crit_edge

.lr.ph.preheader:                                 ; preds = %98
  %100 = trunc nuw nsw i64 %indvars.iv to i32
  br label %.lr.ph

.lr.ph:                                           ; preds = %.lr.ph.preheader, %.lr.ph
  %.08088 = phi i32 [ %101, %.lr.ph ], [ %77, %.lr.ph.preheader ]
  %101 = add nsw i32 %.08088, -1
  %102 = load i32, ptr %63, align 8, !tbaa !138
  %103 = add nsw i32 %102, 1
  store i32 %103, ptr %63, align 8, !tbaa !138
  %104 = sext i32 %102 to i64
  %105 = getelementptr inbounds [10 x i32], ptr %67, i64 0, i64 %104
  store i32 %100, ptr %105, align 4, !tbaa !46
  %106 = icmp samesign ugt i32 %.08088, 1
  br i1 %106, label %.lr.ph, label %._crit_edge, !llvm.loop !139

._crit_edge:                                      ; preds = %.lr.ph, %98
  %indvars.iv.next = add nuw nsw i64 %indvars.iv, 1
  %107 = load i32, ptr %6, align 4, !tbaa !91
  %108 = sext i32 %107 to i64
  %109 = icmp slt i64 %indvars.iv.next, %108
  br i1 %109, label %68, label %.loopexit, !llvm.loop !140

.loopexit:                                        ; preds = %._crit_edge, %41, %9
  %110 = getelementptr inbounds nuw i8, ptr %0, i64 284
  %111 = load i32, ptr %110, align 4, !tbaa !141
  %112 = icmp sgt i32 %111, 0
  br i1 %112, label %113, label %122

113:                                              ; preds = %.loopexit
  %114 = zext nneg i32 %111 to i64
  %115 = getelementptr inbounds nuw i8, ptr %0, i64 360
  %116 = load i32, ptr %115, align 8, !tbaa !130
  %117 = zext i32 %116 to i64
  %118 = mul nuw nsw i64 %117, %114
  %119 = tail call i64 @llvm.umin.i64(i64 %118, i64 65535)
  %120 = trunc nuw nsw i64 %119 to i32
  %121 = getelementptr inbounds nuw i8, ptr %0, i64 280
  store i32 %120, ptr %121, align 8, !tbaa !142
  br label %122

122:                                              ; preds = %113, %.loopexit
  ret void
}